target datalayout = "e-m:e-p270:32:32-p271:32:32-p272:64:64-i64:64-i128:128-f80:128-n8:16:32:64-S128"
target triple = "x86_64-pc-linux-gnu"

%"class.ozz::options::Option" = type { ptr, ptr, ptr, i8, i8, ptr }

@.str.3 = private unnamed_addr constant [1 x i8] zeroinitializer, align 1
@.str.4 = private unnamed_addr constant [4 x i8] c"...\00", align 1

; Function Attrs: mustprogress nounwind uwtable
define dso_local void @_ZN3ozz7options6OptionC2EPKcS3_bPFbRKS1_iE(ptr noundef nonnull align 8 dereferenceable(40) %0, ptr noundef %1, ptr noundef %2, i1 noundef zeroext %3, ptr noundef %4) unnamed_addr #6 align 2 {
  %6 = alloca ptr, align 8
  %7 = alloca ptr, align 8
  %8 = alloca ptr, align 8
  %9 = alloca i8, align 1
  %10 = alloca ptr, align 8
  store ptr %0, ptr %6, align 8, !tbaa !26
  store ptr %1, ptr %7, align 8, !tbaa !9
  store ptr %2, ptr %8, align 8, !tbaa !9
  %11 = zext i1 %3 to i8
  store i8 %11, ptr %9, align 1, !tbaa !11
  store ptr %4, ptr %10, align 8, !tbaa !13
  %12 = load ptr, ptr %6, align 8
  store ptr getelementptr inbounds inrange(-16, 48) ({ [8 x ptr] }, ptr @_ZTVN3ozz7options6OptionE, i32 0, i32 0, i32 2), ptr %12, align 8, !tbaa !16
  %13 = getelementptr inbounds nuw %"class.ozz::options::Option", ptr %12, i32 0, i32 1
  %14 = load ptr, ptr %7, align 8, !tbaa !9
  %15 = icmp ne ptr %14, null
  br i1 %15, label %16, label %18

16:                                               ; preds = %5
  %17 = load ptr, ptr %7, align 8, !tbaa !9
  br label %19

18:                                               ; preds = %5
  br label %19

19:                                               ; preds = %18, %16
  %20 = phi ptr [ %17, %16 ], [ @.str.3, %18 ]
  store ptr %20, ptr %13, align 8, !tbaa !64
  %21 = getelementptr inbounds nuw %"class.ozz::options::Option", ptr %12, i32 0, i32 2
  %22 = load ptr, ptr %8, align 8, !tbaa !9
  %23 = icmp ne ptr %22, null
  br i1 %23, label %24, label %26

24:                                               ; preds = %19
  %25 = load ptr, ptr %8, align 8, !tbaa !9
  br label %27

26:                                               ; preds = %19
  br label %27

27:                                               ; preds = %26, %24
  %28 = phi ptr [ %25, %24 ], [ @.str.4, %26 ]
  store ptr %28, ptr %21, align 8, !tbaa !65
  %29 = getelementptr inbounds nuw %"class.ozz::options::Option", ptr %12, i32 0, i32 3
  %30 = load i8, ptr %9, align 1, !tbaa !11, !range !14, !noundef !15
  %31 = trunc i8 %30 to i1
  %32 = zext i1 %31 to i8
  store i8 %32, ptr %29, align 8, !tbaa !66
  %33 = getelementptr inbounds nuw %"class.ozz::options::Option", ptr %12, i32 0, i32 4
  store i8 0, ptr %33, align 1, !tbaa !67
  %34 = getelementptr inbounds nuw %"class.ozz::options::Option", ptr %12, i32 0, i32 5
  %35 = load ptr, ptr %10, align 8, !tbaa !13
  store ptr %35, ptr %34, align 8, !tbaa !68
  ret void
}