; Function Attrs: mustprogress nofree norecurse nosync nounwind willreturn memory(argmem: write) uwtable
define dso_local void @_ZN3ozz7options6OptionC2EPKcS3_bPFbRKS1_iE(ptr noundef nonnull writeonly align 8 captures(none) dereferenceable(40) initializes((0, 26), (32, 40)) %0, ptr noundef %1, ptr noundef %2, i1 noundef zeroext %3, ptr noundef %4) unnamed_addr #10 align 2 {
  %6 = zext i1 %3 to i8
  store ptr getelementptr inbounds nuw inrange(-16, 48) (i8, ptr @_ZTVN3ozz7options6OptionE, i64 16), ptr %0, align 8, !tbaa !18
  %7 = getelementptr inbounds nuw i8, ptr %0, i64 8
  %.not = icmp eq ptr %1, null
  %8 = select i1 %.not, ptr @.str.3, ptr %1
  store ptr %8, ptr %7, align 8, !tbaa !4
  %9 = getelementptr inbounds nuw i8, ptr %0, i64 16
  %.not6 = icmp eq ptr %2, null
  %10 = select i1 %.not6, ptr @.str.4, ptr %2
  store ptr %10, ptr %9, align 8, !tbaa !11
  %11 = getelementptr inbounds nuw i8, ptr %0, i64 24
  store i8 %6, ptr %11, align 8, !tbaa !12
  %12 = getelementptr inbounds nuw i8, ptr %0, i64 25
  store i8 0, ptr %12, align 1, !tbaa !13
  %13 = getelementptr inbounds nuw i8, ptr %0, i64 32
  store ptr %4, ptr %13, align 8, !tbaa !14
  ret void
}